; Function Attrs: nounwind uwtable
define dso_local ptr @PyInterpreterState_GetDict(ptr noundef captures(none) %0) local_unnamed_addr #1 {
  %2 = getelementptr inbounds nuw i8, ptr %0, i64 8448
  %3 = load ptr, ptr %2, align 8, !tbaa !241
  %4 = icmp eq ptr %3, null
  br i1 %4, label %5, label %9

5:                                                ; preds = %1
  %6 = tail call ptr @PyDict_New() #16
  store ptr %6, ptr %2, align 8, !tbaa !241
  %7 = icmp eq ptr %6, null
  br i1 %7, label %8, label %9

8:                                                ; preds = %5
  tail call void @PyErr_Clear() #16
  %.pre = load ptr, ptr %2, align 8, !tbaa !241
  br label %9

9:                                                ; preds = %5, %8, %1
  %10 = phi ptr [ %6, %5 ], [ %.pre, %8 ], [ %3, %1 ]
  ret ptr %10
}